target datalayout = "e-m:e-p270:32:32-p271:32:32-p272:64:64-i64:64-i128:128-f80:128-n8:16:32:64-S128"
target triple = "x86_64-pc-linux-gnu"

%"struct.__gnu_cxx::__ops::_Iter_comp_iter.394" = type { i8 }

; Function Attrs: mustprogress nounwind uwtable
define internal void @"_ZSt22__chunk_insertion_sortIPPN4llvm7PHINodeElN9__gnu_cxx5__ops15_Iter_comp_iterIZNS0_12SCEVExpander19replaceCongruentIVsEPNS0_4LoopEPKNS0_13DominatorTreeERNS0_15SmallVectorImplINS0_14WeakTrackingVHEEEPKNS0_19TargetTransformInfoEE3$_0EEEvT_SM_T0_T1_"(ptr noundef %0, ptr noundef %1, i64 noundef %2) #1 {
  %4 = alloca %"struct.__gnu_cxx::__ops::_Iter_comp_iter.394", align 1
  %5 = alloca ptr, align 8
  %6 = alloca ptr, align 8
  %7 = alloca i64, align 8
  %8 = alloca %"struct.__gnu_cxx::__ops::_Iter_comp_iter.394", align 1
  %9 = alloca %"struct.__gnu_cxx::__ops::_Iter_comp_iter.394", align 1
  store ptr %0, ptr %5, align 8
  store ptr %1, ptr %6, align 8
  store i64 %2, ptr %7, align 8
  br label %10

10:                                               ; preds = %19, %3
  %11 = load ptr, ptr %6, align 8
  %12 = load ptr, ptr %5, align 8
  %13 = ptrtoint ptr %11 to i64
  %14 = ptrtoint ptr %12 to i64
  %15 = sub i64 %13, %14
  %16 = sdiv exact i64 %15, 8
  %17 = load i64, ptr %7, align 8
  %18 = icmp sge i64 %16, %17
  br i1 %18, label %19, label %27

19:                                               ; preds = %10
  %20 = load ptr, ptr %5, align 8
  %21 = load ptr, ptr %5, align 8
  %22 = load i64, ptr %7, align 8
  %23 = getelementptr inbounds ptr, ptr %21, i64 %22
  call void @llvm.memcpy.p0.p0.i64(ptr align 1 %8, ptr align 1 %4, i64 1, i1 false)
  call void @"_ZSt16__insertion_sortIPPN4llvm7PHINodeEN9__gnu_cxx5__ops15_Iter_comp_iterIZNS0_12SCEVExpander19replaceCongruentIVsEPNS0_4LoopEPKNS0_13DominatorTreeERNS0_15SmallVectorImplINS0_14WeakTrackingVHEEEPKNS0_19TargetTransformInfoEE3$_0EEEvT_SM_T0_"(ptr noundef %20, ptr noundef %23)
  %24 = load i64, ptr %7, align 8
  %25 = load ptr, ptr %5, align 8
  %26 = getelementptr inbounds ptr, ptr %25, i64 %24
  store ptr %26, ptr %5, align 8
  br label %10, !llvm.loop !110

27:                                               ; preds = %10
  %28 = load ptr, ptr %5, align 8
  %29 = load ptr, ptr %6, align 8
  call void @llvm.memcpy.p0.p0.i64(ptr align 1 %9, ptr align 1 %4, i64 1, i1 false)
  call void @"_ZSt16__insertion_sortIPPN4llvm7PHINodeEN9__gnu_cxx5__ops15_Iter_comp_iterIZNS0_12SCEVExpander19replaceCongruentIVsEPNS0_4LoopEPKNS0_13DominatorTreeERNS0_15SmallVectorImplINS0_14WeakTrackingVHEEEPKNS0_19TargetTransformInfoEE3$_0EEEvT_SM_T0_"(ptr noundef %28, ptr noundef %29)
  ret void
}

; Function Attrs: mustprogress nounwind uwtable
define internal void @"_ZSt24__merge_sort_with_bufferIPPN4llvm7PHINodeES3_N9__gnu_cxx5__ops15_Iter_comp_iterIZNS0_12SCEVExpander19replaceCongruentIVsEPNS0_4LoopEPKNS0_13DominatorTreeERNS0_15SmallVectorImplINS0_14WeakTrackingVHEEEPKNS0_19TargetTransformInfoEE3$_0EEEvT_SM_T0_T1_"(ptr noundef %0, ptr noundef %1, ptr noundef %2) #1 {
  %4 = alloca %"struct.__gnu_cxx::__ops::_Iter_comp_iter.394", align 1
  %5 = alloca ptr, align 8
  %6 = alloca ptr, align 8
  %7 = alloca ptr, align 8
  %8 = alloca i64, align 8
  %9 = alloca ptr, align 8
  %10 = alloca i64, align 8
  %11 = alloca %"struct.__gnu_cxx::__ops::_Iter_comp_iter.394", align 1
  %12 = alloca %"struct.__gnu_cxx::__ops::_Iter_comp_iter.394", align 1
  %13 = alloca %"struct.__gnu_cxx::__ops::_Iter_comp_iter.394", align 1
  store ptr %0, ptr %5, align 8
  store ptr %1, ptr %6, align 8
  store ptr %2, ptr %7, align 8
  %14 = load ptr, ptr %6, align 8
  %15 = load ptr, ptr %5, align 8
  %16 = ptrtoint ptr %14 to i64
  %17 = ptrtoint ptr %15 to i64
  %18 = sub i64 %16, %17
  %19 = sdiv exact i64 %18, 8
  store i64 %19, ptr %8, align 8
  %20 = load ptr, ptr %7, align 8
  %21 = load i64, ptr %8, align 8
  %22 = getelementptr inbounds ptr, ptr %20, i64 %21
  store ptr %22, ptr %9, align 8
  store i64 7, ptr %10, align 8
  %23 = load ptr, ptr %5, align 8
  %24 = load ptr, ptr %6, align 8
  %25 = load i64, ptr %10, align 8
  call void @llvm.memcpy.p0.p0.i64(ptr align 1 %11, ptr align 1 %4, i64 1, i1 false)
  call void @"_ZSt22__chunk_insertion_sortIPPN4llvm7PHINodeElN9__gnu_cxx5__ops15_Iter_comp_iterIZNS0_12SCEVExpander19replaceCongruentIVsEPNS0_4LoopEPKNS0_13DominatorTreeERNS0_15SmallVectorImplINS0_14WeakTrackingVHEEEPKNS0_19TargetTransformInfoEE3$_0EEEvT_SM_T0_T1_"(ptr noundef %23, ptr noundef %24, i64 noundef %25)
  br label %26

26:                                               ; preds = %30, %3
  %27 = load i64, ptr %10, align 8
  %28 = load i64, ptr %8, align 8
  %29 = icmp slt i64 %27, %28
  br i1 %29, label %30, label %43

30:                                               ; preds = %26
  %31 = load ptr, ptr %5, align 8
  %32 = load ptr, ptr %6, align 8
  %33 = load ptr, ptr %7, align 8
  %34 = load i64, ptr %10, align 8
  call void @llvm.memcpy.p0.p0.i64(ptr align 1 %12, ptr align 1 %4, i64 1, i1 false)
  call void @"_ZSt17__merge_sort_loopIPPN4llvm7PHINodeES3_lN9__gnu_cxx5__ops15_Iter_comp_iterIZNS0_12SCEVExpander19replaceCongruentIVsEPNS0_4LoopEPKNS0_13DominatorTreeERNS0_15SmallVectorImplINS0_14WeakTrackingVHEEEPKNS0_19TargetTransformInfoEE3$_0EEEvT_SM_T0_T1_T2_"(ptr noundef %31, ptr noundef %32, ptr noundef %33, i64 noundef %34)
  %35 = load i64, ptr %10, align 8
  %36 = mul nsw i64 %35, 2
  store i64 %36, ptr %10, align 8
  %37 = load ptr, ptr %7, align 8
  %38 = load ptr, ptr %9, align 8
  %39 = load ptr, ptr %5, align 8
  %40 = load i64, ptr %10, align 8
  call void @llvm.memcpy.p0.p0.i64(ptr align 1 %13, ptr align 1 %4, i64 1, i1 false)
  call void @"_ZSt17__merge_sort_loopIPPN4llvm7PHINodeES3_lN9__gnu_cxx5__ops15_Iter_comp_iterIZNS0_12SCEVExpander19replaceCongruentIVsEPNS0_4LoopEPKNS0_13DominatorTreeERNS0_15SmallVectorImplINS0_14WeakTrackingVHEEEPKNS0_19TargetTransformInfoEE3$_0EEEvT_SM_T0_T1_T2_"(ptr noundef %37, ptr noundef %38, ptr noundef %39, i64 noundef %40)
  %41 = load i64, ptr %10, align 8
  %42 = mul nsw i64 %41, 2
  store i64 %42, ptr %10, align 8
  br label %26, !llvm.loop !109

43:                                               ; preds = %26
  ret void
}

; Function Attrs: mustprogress nounwind uwtable
define internal void @"_ZSt22__stable_sort_adaptiveIPPN4llvm7PHINodeES3_lN9__gnu_cxx5__ops15_Iter_comp_iterIZNS0_12SCEVExpander19replaceCongruentIVsEPNS0_4LoopEPKNS0_13DominatorTreeERNS0_15SmallVectorImplINS0_14WeakTrackingVHEEEPKNS0_19TargetTransformInfoEE3$_0EEEvT_SM_T0_T1_T2_"(ptr noundef %0, ptr noundef %1, ptr noundef %2, i64 noundef %3) #1 {
  %5 = alloca %"struct.__gnu_cxx::__ops::_Iter_comp_iter.394", align 1
  %6 = alloca ptr, align 8
  %7 = alloca ptr, align 8
  %8 = alloca ptr, align 8
  %9 = alloca i64, align 8
  %10 = alloca i64, align 8
  %11 = alloca ptr, align 8
  %12 = alloca %"struct.__gnu_cxx::__ops::_Iter_comp_iter.394", align 1
  %13 = alloca %"struct.__gnu_cxx::__ops::_Iter_comp_iter.394", align 1
  %14 = alloca %"struct.__gnu_cxx::__ops::_Iter_comp_iter.394", align 1
  %15 = alloca %"struct.__gnu_cxx::__ops::_Iter_comp_iter.394", align 1
  %16 = alloca %"struct.__gnu_cxx::__ops::_Iter_comp_iter.394", align 1
  store ptr %0, ptr %6, align 8
  store ptr %1, ptr %7, align 8
  store ptr %2, ptr %8, align 8
  store i64 %3, ptr %9, align 8
  %17 = load ptr, ptr %7, align 8
  %18 = load ptr, ptr %6, align 8
  %19 = ptrtoint ptr %17 to i64
  %20 = ptrtoint ptr %18 to i64
  %21 = sub i64 %19, %20
  %22 = sdiv exact i64 %21, 8
  %23 = add nsw i64 %22, 1
  %24 = sdiv i64 %23, 2
  store i64 %24, ptr %10, align 8
  %25 = load ptr, ptr %6, align 8
  %26 = load i64, ptr %10, align 8
  %27 = getelementptr inbounds ptr, ptr %25, i64 %26
  store ptr %27, ptr %11, align 8
  %28 = load i64, ptr %10, align 8
  %29 = load i64, ptr %9, align 8
  %30 = icmp sgt i64 %28, %29
  br i1 %30, label %31, label %40

31:                                               ; preds = %4
  %32 = load ptr, ptr %6, align 8
  %33 = load ptr, ptr %11, align 8
  %34 = load ptr, ptr %8, align 8
  %35 = load i64, ptr %9, align 8
  call void @llvm.memcpy.p0.p0.i64(ptr align 1 %12, ptr align 1 %5, i64 1, i1 false)
  call void @"_ZSt22__stable_sort_adaptiveIPPN4llvm7PHINodeES3_lN9__gnu_cxx5__ops15_Iter_comp_iterIZNS0_12SCEVExpander19replaceCongruentIVsEPNS0_4LoopEPKNS0_13DominatorTreeERNS0_15SmallVectorImplINS0_14WeakTrackingVHEEEPKNS0_19TargetTransformInfoEE3$_0EEEvT_SM_T0_T1_T2_"(ptr noundef %32, ptr noundef %33, ptr noundef %34, i64 noundef %35)
  %36 = load ptr, ptr %11, align 8
  %37 = load ptr, ptr %7, align 8
  %38 = load ptr, ptr %8, align 8
  %39 = load i64, ptr %9, align 8
  call void @llvm.memcpy.p0.p0.i64(ptr align 1 %13, ptr align 1 %5, i64 1, i1 false)
  call void @"_ZSt22__stable_sort_adaptiveIPPN4llvm7PHINodeES3_lN9__gnu_cxx5__ops15_Iter_comp_iterIZNS0_12SCEVExpander19replaceCongruentIVsEPNS0_4LoopEPKNS0_13DominatorTreeERNS0_15SmallVectorImplINS0_14WeakTrackingVHEEEPKNS0_19TargetTransformInfoEE3$_0EEEvT_SM_T0_T1_T2_"(ptr noundef %36, ptr noundef %37, ptr noundef %38, i64 noundef %39)
  br label %47

40:                                               ; preds = %4
  %41 = load ptr, ptr %6, align 8
  %42 = load ptr, ptr %11, align 8
  %43 = load ptr, ptr %8, align 8
  call void @llvm.memcpy.p0.p0.i64(ptr align 1 %14, ptr align 1 %5, i64 1, i1 false)
  call void @"_ZSt24__merge_sort_with_bufferIPPN4llvm7PHINodeES3_N9__gnu_cxx5__ops15_Iter_comp_iterIZNS0_12SCEVExpander19replaceCongruentIVsEPNS0_4LoopEPKNS0_13DominatorTreeERNS0_15SmallVectorImplINS0_14WeakTrackingVHEEEPKNS0_19TargetTransformInfoEE3$_0EEEvT_SM_T0_T1_"(ptr noundef %41, ptr noundef %42, ptr noundef %43)
  %44 = load ptr, ptr %11, align 8
  %45 = load ptr, ptr %7, align 8
  %46 = load ptr, ptr %8, align 8
  call void @llvm.memcpy.p0.p0.i64(ptr align 1 %15, ptr align 1 %5, i64 1, i1 false)
  call void @"_ZSt24__merge_sort_with_bufferIPPN4llvm7PHINodeES3_N9__gnu_cxx5__ops15_Iter_comp_iterIZNS0_12SCEVExpander19replaceCongruentIVsEPNS0_4LoopEPKNS0_13DominatorTreeERNS0_15SmallVectorImplINS0_14WeakTrackingVHEEEPKNS0_19TargetTransformInfoEE3$_0EEEvT_SM_T0_T1_"(ptr noundef %44, ptr noundef %45, ptr noundef %46)
  br label %47

47:                                               ; preds = %40, %31
  %48 = load ptr, ptr %6, align 8
  %49 = load ptr, ptr %11, align 8
  %50 = load ptr, ptr %7, align 8
  %51 = load ptr, ptr %11, align 8
  %52 = load ptr, ptr %6, align 8
  %53 = ptrtoint ptr %51 to i64
  %54 = ptrtoint ptr %52 to i64
  %55 = sub i64 %53, %54
  %56 = sdiv exact i64 %55, 8
  %57 = load ptr, ptr %7, align 8
  %58 = load ptr, ptr %11, align 8
  %59 = ptrtoint ptr %57 to i64
  %60 = ptrtoint ptr %58 to i64
  %61 = sub i64 %59, %60
  %62 = sdiv exact i64 %61, 8
  %63 = load ptr, ptr %8, align 8
  %64 = load i64, ptr %9, align 8
  call void @llvm.memcpy.p0.p0.i64(ptr align 1 %16, ptr align 1 %5, i64 1, i1 false)
  call void @"_ZSt16__merge_adaptiveIPPN4llvm7PHINodeElS3_N9__gnu_cxx5__ops15_Iter_comp_iterIZNS0_12SCEVExpander19replaceCongruentIVsEPNS0_4LoopEPKNS0_13DominatorTreeERNS0_15SmallVectorImplINS0_14WeakTrackingVHEEEPKNS0_19TargetTransformInfoEE3$_0EEEvT_SM_SM_T0_SN_T1_SN_T2_"(ptr noundef %48, ptr noundef %49, ptr noundef %50, i64 noundef %56, i64 noundef %62, ptr noundef %63, i64 noundef %64)
  ret void
}