; Function Attrs: mustprogress nounwind uwtable
define internal fastcc void @"_ZSt22__stable_sort_adaptiveIPPN4llvm7PHINodeES3_lN9__gnu_cxx5__ops15_Iter_comp_iterIZNS0_12SCEVExpander19replaceCongruentIVsEPNS0_4LoopEPKNS0_13DominatorTreeERNS0_15SmallVectorImplINS0_14WeakTrackingVHEEEPKNS0_19TargetTransformInfoEE3$_0EEEvT_SM_T0_T1_T2_"(ptr noundef %0, ptr noundef %1, ptr noundef %2, i64 noundef %3) unnamed_addr #0 {
  %5 = ptrtoint ptr %1 to i64
  %6 = ptrtoint ptr %0 to i64
  %7 = sub i64 %5, %6
  %8 = ashr exact i64 %7, 3
  %9 = add nsw i64 %8, 1
  %10 = sdiv i64 %9, 2
  %11 = getelementptr inbounds ptr, ptr %0, i64 %10
  %12 = icmp sgt i64 %10, %3
  br i1 %12, label %13, label %14

13:                                               ; preds = %4
  tail call fastcc void @"_ZSt22__stable_sort_adaptiveIPPN4llvm7PHINodeES3_lN9__gnu_cxx5__ops15_Iter_comp_iterIZNS0_12SCEVExpander19replaceCongruentIVsEPNS0_4LoopEPKNS0_13DominatorTreeERNS0_15SmallVectorImplINS0_14WeakTrackingVHEEEPKNS0_19TargetTransformInfoEE3$_0EEEvT_SM_T0_T1_T2_"(ptr noundef %0, ptr noundef %11, ptr noundef %2, i64 noundef %3)
  tail call fastcc void @"_ZSt22__stable_sort_adaptiveIPPN4llvm7PHINodeES3_lN9__gnu_cxx5__ops15_Iter_comp_iterIZNS0_12SCEVExpander19replaceCongruentIVsEPNS0_4LoopEPKNS0_13DominatorTreeERNS0_15SmallVectorImplINS0_14WeakTrackingVHEEEPKNS0_19TargetTransformInfoEE3$_0EEEvT_SM_T0_T1_T2_"(ptr noundef %11, ptr noundef %1, ptr noundef %2, i64 noundef %3)
  %.pre = ptrtoint ptr %11 to i64
  %.pre46 = sub i64 %5, %.pre
  %.pre48 = ashr exact i64 %.pre46, 3
  br label %"_ZSt24__merge_sort_with_bufferIPPN4llvm7PHINodeES3_N9__gnu_cxx5__ops15_Iter_comp_iterIZNS0_12SCEVExpander19replaceCongruentIVsEPNS0_4LoopEPKNS0_13DominatorTreeERNS0_15SmallVectorImplINS0_14WeakTrackingVHEEEPKNS0_19TargetTransformInfoEE3$_0EEEvT_SM_T0_T1_.exit43"

14:                                               ; preds = %4
  %15 = ptrtoint ptr %11 to i64
  %.idx = shl nsw i64 %10, 3
  %16 = getelementptr inbounds i8, ptr %2, i64 %.idx
  %17 = icmp sgt i64 %8, 12
  br i1 %17, label %.lr.ph.i.i, label %"_ZSt22__chunk_insertion_sortIPPN4llvm7PHINodeElN9__gnu_cxx5__ops15_Iter_comp_iterIZNS0_12SCEVExpander19replaceCongruentIVsEPNS0_4LoopEPKNS0_13DominatorTreeERNS0_15SmallVectorImplINS0_14WeakTrackingVHEEEPKNS0_19TargetTransformInfoEE3$_0EEEvT_SM_T0_T1_.exit.i.thread"

"_ZSt22__chunk_insertion_sortIPPN4llvm7PHINodeElN9__gnu_cxx5__ops15_Iter_comp_iterIZNS0_12SCEVExpander19replaceCongruentIVsEPNS0_4LoopEPKNS0_13DominatorTreeERNS0_15SmallVectorImplINS0_14WeakTrackingVHEEEPKNS0_19TargetTransformInfoEE3$_0EEEvT_SM_T0_T1_.exit.i.thread": ; preds = %14
  tail call fastcc void @"_ZSt16__insertion_sortIPPN4llvm7PHINodeEN9__gnu_cxx5__ops15_Iter_comp_iterIZNS0_12SCEVExpander19replaceCongruentIVsEPNS0_4LoopEPKNS0_13DominatorTreeERNS0_15SmallVectorImplINS0_14WeakTrackingVHEEEPKNS0_19TargetTransformInfoEE3$_0EEEvT_SM_T0_"(ptr noundef %0, ptr noundef %11)
  br label %"_ZSt24__merge_sort_with_bufferIPPN4llvm7PHINodeES3_N9__gnu_cxx5__ops15_Iter_comp_iterIZNS0_12SCEVExpander19replaceCongruentIVsEPNS0_4LoopEPKNS0_13DominatorTreeERNS0_15SmallVectorImplINS0_14WeakTrackingVHEEEPKNS0_19TargetTransformInfoEE3$_0EEEvT_SM_T0_T1_.exit"

.lr.ph.i.i:                                       ; preds = %14, %.lr.ph.i.i
  %.013.i.i = phi ptr [ %18, %.lr.ph.i.i ], [ %0, %14 ]
  %18 = getelementptr inbounds nuw i8, ptr %.013.i.i, i64 56
  tail call fastcc void @"_ZSt16__insertion_sortIPPN4llvm7PHINodeEN9__gnu_cxx5__ops15_Iter_comp_iterIZNS0_12SCEVExpander19replaceCongruentIVsEPNS0_4LoopEPKNS0_13DominatorTreeERNS0_15SmallVectorImplINS0_14WeakTrackingVHEEEPKNS0_19TargetTransformInfoEE3$_0EEEvT_SM_T0_"(ptr noundef %.013.i.i, ptr noundef nonnull %18)
  %19 = ptrtoint ptr %18 to i64
  %20 = sub i64 %15, %19
  %21 = icmp sgt i64 %20, 48
  br i1 %21, label %.lr.ph.i.i, label %"_ZSt22__chunk_insertion_sortIPPN4llvm7PHINodeElN9__gnu_cxx5__ops15_Iter_comp_iterIZNS0_12SCEVExpander19replaceCongruentIVsEPNS0_4LoopEPKNS0_13DominatorTreeERNS0_15SmallVectorImplINS0_14WeakTrackingVHEEEPKNS0_19TargetTransformInfoEE3$_0EEEvT_SM_T0_T1_.exit.i", !llvm.loop !216

"_ZSt22__chunk_insertion_sortIPPN4llvm7PHINodeElN9__gnu_cxx5__ops15_Iter_comp_iterIZNS0_12SCEVExpander19replaceCongruentIVsEPNS0_4LoopEPKNS0_13DominatorTreeERNS0_15SmallVectorImplINS0_14WeakTrackingVHEEEPKNS0_19TargetTransformInfoEE3$_0EEEvT_SM_T0_T1_.exit.i": ; preds = %.lr.ph.i.i
  tail call fastcc void @"_ZSt16__insertion_sortIPPN4llvm7PHINodeEN9__gnu_cxx5__ops15_Iter_comp_iterIZNS0_12SCEVExpander19replaceCongruentIVsEPNS0_4LoopEPKNS0_13DominatorTreeERNS0_15SmallVectorImplINS0_14WeakTrackingVHEEEPKNS0_19TargetTransformInfoEE3$_0EEEvT_SM_T0_"(ptr noundef nonnull %18, ptr noundef %11)
  %22 = icmp sgt i64 %8, 14
  br i1 %22, label %.lr.ph.i, label %"_ZSt24__merge_sort_with_bufferIPPN4llvm7PHINodeES3_N9__gnu_cxx5__ops15_Iter_comp_iterIZNS0_12SCEVExpander19replaceCongruentIVsEPNS0_4LoopEPKNS0_13DominatorTreeERNS0_15SmallVectorImplINS0_14WeakTrackingVHEEEPKNS0_19TargetTransformInfoEE3$_0EEEvT_SM_T0_T1_.exit"

.lr.ph.i:                                         ; preds = %"_ZSt22__chunk_insertion_sortIPPN4llvm7PHINodeElN9__gnu_cxx5__ops15_Iter_comp_iterIZNS0_12SCEVExpander19replaceCongruentIVsEPNS0_4LoopEPKNS0_13DominatorTreeERNS0_15SmallVectorImplINS0_14WeakTrackingVHEEEPKNS0_19TargetTransformInfoEE3$_0EEEvT_SM_T0_T1_.exit.i", %.lr.ph.i
  %.023.i = phi i64 [ %24, %.lr.ph.i ], [ 7, %"_ZSt22__chunk_insertion_sortIPPN4llvm7PHINodeElN9__gnu_cxx5__ops15_Iter_comp_iterIZNS0_12SCEVExpander19replaceCongruentIVsEPNS0_4LoopEPKNS0_13DominatorTreeERNS0_15SmallVectorImplINS0_14WeakTrackingVHEEEPKNS0_19TargetTransformInfoEE3$_0EEEvT_SM_T0_T1_.exit.i" ]
  tail call fastcc void @"_ZSt17__merge_sort_loopIPPN4llvm7PHINodeES3_lN9__gnu_cxx5__ops15_Iter_comp_iterIZNS0_12SCEVExpander19replaceCongruentIVsEPNS0_4LoopEPKNS0_13DominatorTreeERNS0_15SmallVectorImplINS0_14WeakTrackingVHEEEPKNS0_19TargetTransformInfoEE3$_0EEEvT_SM_T0_T1_T2_"(ptr noundef %0, ptr noundef %11, ptr noundef %2, i64 noundef %.023.i)
  %23 = shl nuw nsw i64 %.023.i, 1
  tail call fastcc void @"_ZSt17__merge_sort_loopIPPN4llvm7PHINodeES3_lN9__gnu_cxx5__ops15_Iter_comp_iterIZNS0_12SCEVExpander19replaceCongruentIVsEPNS0_4LoopEPKNS0_13DominatorTreeERNS0_15SmallVectorImplINS0_14WeakTrackingVHEEEPKNS0_19TargetTransformInfoEE3$_0EEEvT_SM_T0_T1_T2_"(ptr noundef %2, ptr noundef %16, ptr noundef %0, i64 noundef %23)
  %24 = shl nsw i64 %.023.i, 2
  %25 = icmp slt i64 %24, %10
  br i1 %25, label %.lr.ph.i, label %"_ZSt24__merge_sort_with_bufferIPPN4llvm7PHINodeES3_N9__gnu_cxx5__ops15_Iter_comp_iterIZNS0_12SCEVExpander19replaceCongruentIVsEPNS0_4LoopEPKNS0_13DominatorTreeERNS0_15SmallVectorImplINS0_14WeakTrackingVHEEEPKNS0_19TargetTransformInfoEE3$_0EEEvT_SM_T0_T1_.exit", !llvm.loop !217

"_ZSt24__merge_sort_with_bufferIPPN4llvm7PHINodeES3_N9__gnu_cxx5__ops15_Iter_comp_iterIZNS0_12SCEVExpander19replaceCongruentIVsEPNS0_4LoopEPKNS0_13DominatorTreeERNS0_15SmallVectorImplINS0_14WeakTrackingVHEEEPKNS0_19TargetTransformInfoEE3$_0EEEvT_SM_T0_T1_.exit": ; preds = %.lr.ph.i, %"_ZSt22__chunk_insertion_sortIPPN4llvm7PHINodeElN9__gnu_cxx5__ops15_Iter_comp_iterIZNS0_12SCEVExpander19replaceCongruentIVsEPNS0_4LoopEPKNS0_13DominatorTreeERNS0_15SmallVectorImplINS0_14WeakTrackingVHEEEPKNS0_19TargetTransformInfoEE3$_0EEEvT_SM_T0_T1_.exit.i.thread", %"_ZSt22__chunk_insertion_sortIPPN4llvm7PHINodeElN9__gnu_cxx5__ops15_Iter_comp_iterIZNS0_12SCEVExpander19replaceCongruentIVsEPNS0_4LoopEPKNS0_13DominatorTreeERNS0_15SmallVectorImplINS0_14WeakTrackingVHEEEPKNS0_19TargetTransformInfoEE3$_0EEEvT_SM_T0_T1_.exit.i"
  %26 = sub i64 %5, %15
  %27 = ashr exact i64 %26, 3
  %28 = getelementptr inbounds i8, ptr %2, i64 %26
  %29 = icmp sgt i64 %26, 48
  br i1 %29, label %.lr.ph.i.i41, label %"_ZSt22__chunk_insertion_sortIPPN4llvm7PHINodeElN9__gnu_cxx5__ops15_Iter_comp_iterIZNS0_12SCEVExpander19replaceCongruentIVsEPNS0_4LoopEPKNS0_13DominatorTreeERNS0_15SmallVectorImplINS0_14WeakTrackingVHEEEPKNS0_19TargetTransformInfoEE3$_0EEEvT_SM_T0_T1_.exit.i37"

.lr.ph.i.i41:                                     ; preds = %"_ZSt24__merge_sort_with_bufferIPPN4llvm7PHINodeES3_N9__gnu_cxx5__ops15_Iter_comp_iterIZNS0_12SCEVExpander19replaceCongruentIVsEPNS0_4LoopEPKNS0_13DominatorTreeERNS0_15SmallVectorImplINS0_14WeakTrackingVHEEEPKNS0_19TargetTransformInfoEE3$_0EEEvT_SM_T0_T1_.exit", %.lr.ph.i.i41
  %.013.i.i42 = phi ptr [ %30, %.lr.ph.i.i41 ], [ %11, %"_ZSt24__merge_sort_with_bufferIPPN4llvm7PHINodeES3_N9__gnu_cxx5__ops15_Iter_comp_iterIZNS0_12SCEVExpander19replaceCongruentIVsEPNS0_4LoopEPKNS0_13DominatorTreeERNS0_15SmallVectorImplINS0_14WeakTrackingVHEEEPKNS0_19TargetTransformInfoEE3$_0EEEvT_SM_T0_T1_.exit" ]
  %30 = getelementptr inbounds nuw i8, ptr %.013.i.i42, i64 56
  tail call fastcc void @"_ZSt16__insertion_sortIPPN4llvm7PHINodeEN9__gnu_cxx5__ops15_Iter_comp_iterIZNS0_12SCEVExpander19replaceCongruentIVsEPNS0_4LoopEPKNS0_13DominatorTreeERNS0_15SmallVectorImplINS0_14WeakTrackingVHEEEPKNS0_19TargetTransformInfoEE3$_0EEEvT_SM_T0_"(ptr noundef %.013.i.i42, ptr noundef nonnull %30)
  %31 = ptrtoint ptr %30 to i64
  %32 = sub i64 %5, %31
  %33 = icmp sgt i64 %32, 48
  br i1 %33, label %.lr.ph.i.i41, label %"_ZSt22__chunk_insertion_sortIPPN4llvm7PHINodeElN9__gnu_cxx5__ops15_Iter_comp_iterIZNS0_12SCEVExpander19replaceCongruentIVsEPNS0_4LoopEPKNS0_13DominatorTreeERNS0_15SmallVectorImplINS0_14WeakTrackingVHEEEPKNS0_19TargetTransformInfoEE3$_0EEEvT_SM_T0_T1_.exit.i37", !llvm.loop !216

"_ZSt22__chunk_insertion_sortIPPN4llvm7PHINodeElN9__gnu_cxx5__ops15_Iter_comp_iterIZNS0_12SCEVExpander19replaceCongruentIVsEPNS0_4LoopEPKNS0_13DominatorTreeERNS0_15SmallVectorImplINS0_14WeakTrackingVHEEEPKNS0_19TargetTransformInfoEE3$_0EEEvT_SM_T0_T1_.exit.i37": ; preds = %.lr.ph.i.i41, %"_ZSt24__merge_sort_with_bufferIPPN4llvm7PHINodeES3_N9__gnu_cxx5__ops15_Iter_comp_iterIZNS0_12SCEVExpander19replaceCongruentIVsEPNS0_4LoopEPKNS0_13DominatorTreeERNS0_15SmallVectorImplINS0_14WeakTrackingVHEEEPKNS0_19TargetTransformInfoEE3$_0EEEvT_SM_T0_T1_.exit"
  %.0.lcssa.i.i38 = phi ptr [ %11, %"_ZSt24__merge_sort_with_bufferIPPN4llvm7PHINodeES3_N9__gnu_cxx5__ops15_Iter_comp_iterIZNS0_12SCEVExpander19replaceCongruentIVsEPNS0_4LoopEPKNS0_13DominatorTreeERNS0_15SmallVectorImplINS0_14WeakTrackingVHEEEPKNS0_19TargetTransformInfoEE3$_0EEEvT_SM_T0_T1_.exit" ], [ %30, %.lr.ph.i.i41 ]
  tail call fastcc void @"_ZSt16__insertion_sortIPPN4llvm7PHINodeEN9__gnu_cxx5__ops15_Iter_comp_iterIZNS0_12SCEVExpander19replaceCongruentIVsEPNS0_4LoopEPKNS0_13DominatorTreeERNS0_15SmallVectorImplINS0_14WeakTrackingVHEEEPKNS0_19TargetTransformInfoEE3$_0EEEvT_SM_T0_"(ptr noundef %.0.lcssa.i.i38, ptr noundef %1)
  %34 = icmp sgt i64 %27, 7
  br i1 %34, label %.lr.ph.i39, label %"_ZSt24__merge_sort_with_bufferIPPN4llvm7PHINodeES3_N9__gnu_cxx5__ops15_Iter_comp_iterIZNS0_12SCEVExpander19replaceCongruentIVsEPNS0_4LoopEPKNS0_13DominatorTreeERNS0_15SmallVectorImplINS0_14WeakTrackingVHEEEPKNS0_19TargetTransformInfoEE3$_0EEEvT_SM_T0_T1_.exit43"

.lr.ph.i39:                                       ; preds = %"_ZSt22__chunk_insertion_sortIPPN4llvm7PHINodeElN9__gnu_cxx5__ops15_Iter_comp_iterIZNS0_12SCEVExpander19replaceCongruentIVsEPNS0_4LoopEPKNS0_13DominatorTreeERNS0_15SmallVectorImplINS0_14WeakTrackingVHEEEPKNS0_19TargetTransformInfoEE3$_0EEEvT_SM_T0_T1_.exit.i37", %.lr.ph.i39
  %.023.i40 = phi i64 [ %36, %.lr.ph.i39 ], [ 7, %"_ZSt22__chunk_insertion_sortIPPN4llvm7PHINodeElN9__gnu_cxx5__ops15_Iter_comp_iterIZNS0_12SCEVExpander19replaceCongruentIVsEPNS0_4LoopEPKNS0_13DominatorTreeERNS0_15SmallVectorImplINS0_14WeakTrackingVHEEEPKNS0_19TargetTransformInfoEE3$_0EEEvT_SM_T0_T1_.exit.i37" ]
  tail call fastcc void @"_ZSt17__merge_sort_loopIPPN4llvm7PHINodeES3_lN9__gnu_cxx5__ops15_Iter_comp_iterIZNS0_12SCEVExpander19replaceCongruentIVsEPNS0_4LoopEPKNS0_13DominatorTreeERNS0_15SmallVectorImplINS0_14WeakTrackingVHEEEPKNS0_19TargetTransformInfoEE3$_0EEEvT_SM_T0_T1_T2_"(ptr noundef %11, ptr noundef %1, ptr noundef %2, i64 noundef %.023.i40)
  %35 = shl nuw nsw i64 %.023.i40, 1
  tail call fastcc void @"_ZSt17__merge_sort_loopIPPN4llvm7PHINodeES3_lN9__gnu_cxx5__ops15_Iter_comp_iterIZNS0_12SCEVExpander19replaceCongruentIVsEPNS0_4LoopEPKNS0_13DominatorTreeERNS0_15SmallVectorImplINS0_14WeakTrackingVHEEEPKNS0_19TargetTransformInfoEE3$_0EEEvT_SM_T0_T1_T2_"(ptr noundef %2, ptr noundef %28, ptr noundef %11, i64 noundef %35)
  %36 = shl nsw i64 %.023.i40, 2
  %37 = icmp slt i64 %36, %27
  br i1 %37, label %.lr.ph.i39, label %"_ZSt24__merge_sort_with_bufferIPPN4llvm7PHINodeES3_N9__gnu_cxx5__ops15_Iter_comp_iterIZNS0_12SCEVExpander19replaceCongruentIVsEPNS0_4LoopEPKNS0_13DominatorTreeERNS0_15SmallVectorImplINS0_14WeakTrackingVHEEEPKNS0_19TargetTransformInfoEE3$_0EEEvT_SM_T0_T1_.exit43", !llvm.loop !217

"_ZSt24__merge_sort_with_bufferIPPN4llvm7PHINodeES3_N9__gnu_cxx5__ops15_Iter_comp_iterIZNS0_12SCEVExpander19replaceCongruentIVsEPNS0_4LoopEPKNS0_13DominatorTreeERNS0_15SmallVectorImplINS0_14WeakTrackingVHEEEPKNS0_19TargetTransformInfoEE3$_0EEEvT_SM_T0_T1_.exit43": ; preds = %.lr.ph.i39, %"_ZSt22__chunk_insertion_sortIPPN4llvm7PHINodeElN9__gnu_cxx5__ops15_Iter_comp_iterIZNS0_12SCEVExpander19replaceCongruentIVsEPNS0_4LoopEPKNS0_13DominatorTreeERNS0_15SmallVectorImplINS0_14WeakTrackingVHEEEPKNS0_19TargetTransformInfoEE3$_0EEEvT_SM_T0_T1_.exit.i37", %13
  %.pre-phi49 = phi i64 [ %27, %"_ZSt22__chunk_insertion_sortIPPN4llvm7PHINodeElN9__gnu_cxx5__ops15_Iter_comp_iterIZNS0_12SCEVExpander19replaceCongruentIVsEPNS0_4LoopEPKNS0_13DominatorTreeERNS0_15SmallVectorImplINS0_14WeakTrackingVHEEEPKNS0_19TargetTransformInfoEE3$_0EEEvT_SM_T0_T1_.exit.i37" ], [ %.pre48, %13 ], [ %27, %.lr.ph.i39 ]
  tail call fastcc void @"_ZSt16__merge_adaptiveIPPN4llvm7PHINodeElS3_N9__gnu_cxx5__ops15_Iter_comp_iterIZNS0_12SCEVExpander19replaceCongruentIVsEPNS0_4LoopEPKNS0_13DominatorTreeERNS0_15SmallVectorImplINS0_14WeakTrackingVHEEEPKNS0_19TargetTransformInfoEE3$_0EEEvT_SM_SM_T0_SN_T1_SN_T2_"(ptr noundef %0, ptr noundef %11, ptr noundef %1, i64 noundef %10, i64 noundef %.pre-phi49, ptr noundef %2, i64 noundef %3)
  ret void
}